(dp0
S'core'
p1
(lp2
I31
aI41
aI45
aI51
aI55
aI56
aI101
aI105
asS'msa-surface'
p3
(lp4
I1
aI2
aI4
aI5
aI6
aI7
aI8
aI9
aI10
aI11
aI12
aI14
aI15
aI16
aI18
aI19
aI20
aI21
aI22
aI24
aI25
aI26
aI29
aI30
aI31
aI32
aI33
aI34
aI35
aI36
aI37
aI38
aI39
aI40
aI41
aI42
aI43
aI44
aI45
aI46
aI47
aI48
aI49
aI50
aI51
aI52
aI54
aI55
aI56
aI58
aI59
aI60
aI61
aI62
aI63
aI64
aI65
aI66
aI67
aI68
aI69
aI70
aI71
aI72
aI73
aI74
aI75
aI76
aI77
aI78
asS'msa-interface'
p5
(lp6
I52
aI55
aI56
aI58
aI59
aI60
aI61
aI62
aI63
aI68
aI71
aI72
aI75
aI76
asS'surface'
p7
(lp8
I29
aI30
aI32
aI33
aI34
aI35
aI36
aI37
aI38
aI39
aI40
aI42
aI43
aI44
aI46
aI47
aI48
aI49
aI50
aI52
aI53
aI54
aI57
aI58
aI59
aI60
aI61
aI62
aI63
aI64
aI65
aI86
aI87
aI88
aI89
aI90
aI91
aI92
aI93
aI94
aI95
aI96
aI97
aI98
aI99
aI100
aI102
aI103
aI104
aI106
aI107
aI108
aI109
aI110
aI111
aI112
aI113
aI114
aI115
aI116
aI117
aI118
aI119
aI120
aI121
aI122
aI123
aI124
aI125
aI126
asS'msa-ligands'
p9
(lp10
I1
aI2
aI4
aI5
aI6
aI28
aI31
aI32
aI35
aI36
aI38
aI39
aI40
aI41
aI42
aI43
aI46
aI47
aI48
aI49
aI50
aI51
aI52
aI53
aI54
aI55
aI56
aI57
aI58
aI63
aI70
aI71
aI72
aI73
aI74
aI75
aI76
aI77
aI78
asS'msa-core'
p11
(lp12
I3
aI13
aI17
aI23
aI27
aI28
aI53
aI57
asS'interface'
p13
(lp14
I100
aI103
aI104
aI106
aI107
aI108
aI109
aI110
aI111
aI116
aI119
aI120
aI123
aI124
asS'ligands'
p15
(lp16
I29
aI30
aI32
aI33
aI34
aI56
aI59
aI60
aI63
aI64
aI86
aI87
aI88
aI89
aI90
aI91
aI94
aI95
aI96
aI97
aI98
aI99
aI100
aI101
aI102
aI103
aI104
aI105
aI106
aI111
aI118
aI119
aI120
aI121
aI122
aI123
aI124
aI125
aI126
as.