(dp0
S'core'
p1
(lp2
I17
aI29
aI30
aI31
aI40
aI49
aI51
aI52
aI54
aI59
aI67
aI78
aI80
aI82
aI83
asS'msa-surface'
p3
(lp4
I1
aI2
aI3
aI4
aI5
aI6
aI7
aI8
aI9
aI10
aI11
aI12
aI13
aI14
aI16
aI17
aI18
aI19
aI20
aI21
aI22
aI23
aI24
aI25
aI26
aI30
aI31
aI32
aI33
aI34
aI35
aI36
aI37
aI39
aI40
aI41
aI42
aI43
aI44
aI45
aI46
aI48
aI51
aI53
aI54
aI55
aI56
aI58
aI59
aI60
aI61
aI62
aI63
aI64
aI66
aI67
aI68
aI69
aI70
aI71
aI72
aI73
aI74
aI75
aI77
aI79
asS'msa-interface'
p5
(lp6
I3
aI5
aI40
asS'surface'
p7
(lp8
I3
aI4
aI5
aI6
aI7
aI8
aI9
aI10
aI11
aI12
aI13
aI14
aI15
aI16
aI18
aI19
aI20
aI21
aI22
aI23
aI24
aI25
aI26
aI27
aI28
aI32
aI33
aI34
aI35
aI36
aI37
aI38
aI39
aI41
aI42
aI43
aI44
aI45
aI46
aI47
aI48
aI50
aI53
aI55
aI56
aI57
aI58
aI60
aI61
aI62
aI63
aI64
aI65
aI66
aI68
aI69
aI70
aI71
aI72
aI73
aI74
aI75
aI76
aI77
aI79
aI81
asS'msa-ligands'
p9
(lp10
sS'msa-core'
p11
(lp12
I15
aI27
aI28
aI29
aI38
aI47
aI49
aI50
aI52
aI57
aI65
aI76
aI78
aI80
aI81
asS'interface'
p13
(lp14
I5
aI7
aI42
asS'ligands'
p15
(lp16
s.