(dp0
S'core'
p1
(lp2
I405
aI407
aI419
aI436
aI449
aI451
aI453
asS'msa-surface'
p3
(lp4
I1
aI2
aI3
aI4
aI5
aI6
aI7
aI8
aI9
aI10
aI11
aI12
aI13
aI14
aI15
aI16
aI17
aI18
aI19
aI21
aI23
aI24
aI25
aI26
aI27
aI28
aI29
aI30
aI31
aI32
aI33
aI35
aI36
aI37
aI38
aI39
aI40
aI41
aI42
aI43
aI44
aI45
aI46
aI47
aI48
aI50
aI51
aI52
aI53
aI54
aI55
aI56
aI57
aI58
aI59
aI60
aI61
aI63
aI65
aI67
aI68
aI69
aI70
aI71
aI72
aI73
aI74
aI75
asS'msa-interface'
p5
(lp6
I33
aI35
aI38
aI39
aI40
aI41
aI63
aI65
aI67
aI69
aI70
aI71
aI72
aI74
asS'surface'
p7
(lp8
I386
aI387
aI388
aI389
aI390
aI391
aI392
aI393
aI394
aI395
aI396
aI397
aI398
aI399
aI400
aI401
aI402
aI403
aI404
aI406
aI408
aI409
aI410
aI411
aI412
aI413
aI414
aI415
aI416
aI417
aI418
aI420
aI421
aI422
aI423
aI424
aI425
aI426
aI427
aI428
aI429
aI430
aI431
aI432
aI433
aI437
aI438
aI439
aI440
aI441
aI442
aI443
aI444
aI445
aI446
aI447
aI448
aI450
aI452
aI454
aI455
aI456
aI457
aI458
aI459
aI460
aI461
aI462
asS'msa-ligands'
p9
(lp10
I7
aI8
aI9
aI10
aI11
aI20
aI36
aI37
aI38
aI55
aI56
aI57
aI58
aI59
aI60
aI61
aI62
aI63
asS'msa-core'
p11
(lp12
I20
aI22
aI34
aI49
aI62
aI64
aI66
asS'interface'
p13
(lp14
I418
aI420
aI423
aI424
aI425
aI426
aI450
aI452
aI454
aI456
aI457
aI458
aI459
aI461
asS'ligands'
p15
(lp16
I392
aI393
aI394
aI395
aI396
aI405
aI421
aI422
aI423
aI442
aI443
aI444
aI445
aI446
aI447
aI448
aI449
aI450
as.