(dp0
S'core'
p1
(lp2
I24
aI30
aI33
aI37
aI50
aI63
aI68
aI74
asS'msa-surface'
p3
(lp4
I1
aI3
aI4
aI5
aI6
aI7
aI9
aI10
aI12
aI13
aI14
aI16
aI17
aI18
aI19
aI20
aI21
aI22
aI23
aI24
aI25
aI26
aI27
aI29
aI30
aI31
aI32
aI33
aI34
aI35
aI36
aI37
aI38
aI39
aI40
aI42
aI43
aI44
aI45
aI47
aI48
aI49
aI50
aI51
aI53
aI54
aI55
aI56
aI57
aI58
aI59
asS'msa-interface'
p5
(lp6
I1
aI18
aI19
aI21
aI22
aI25
aI27
aI29
aI30
aI31
aI32
aI33
aI34
aI36
aI43
aI45
aI47
aI48
aI49
aI50
aI51
aI53
aI54
aI55
aI56
aI57
aI58
aI59
asS'surface'
p7
(lp8
I23
aI25
aI26
aI27
aI28
aI29
aI31
aI32
aI34
aI35
aI36
aI38
aI39
aI40
aI41
aI42
aI43
aI44
aI45
aI46
aI47
aI48
aI49
aI51
aI52
aI53
aI54
aI55
aI56
aI57
aI58
aI59
aI60
aI61
aI62
aI64
aI65
aI66
aI67
aI69
aI70
aI71
aI72
aI73
aI75
aI76
aI77
aI78
aI79
aI80
aI81
asS'msa-ligands'
p9
(lp10
I7
aI8
aI9
aI12
aI23
aI24
aI25
aI26
aI27
aI28
aI29
aI30
aI31
aI32
aI33
aI34
aI35
aI36
aI37
aI38
aI39
aI44
aI49
aI57
aI66
aI68
aI69
asS'msa-core'
p11
(lp12
I2
aI8
aI11
aI15
aI28
aI41
aI46
aI52
asS'interface'
p13
(lp14
I23
aI40
aI41
aI43
aI44
aI47
aI49
aI51
aI52
aI53
aI54
aI55
aI56
aI58
aI65
aI67
aI69
aI70
aI71
aI72
aI73
aI75
aI76
aI77
aI78
aI79
aI80
aI81
asS'ligands'
p15
(lp16
I29
aI30
aI31
aI34
aI45
aI46
aI47
aI48
aI49
aI50
aI51
aI52
aI53
aI54
aI55
aI56
aI57
aI58
aI59
aI60
aI61
aI66
aI71
aI79
aI88
aI90
aI91
as.