(dp0
S'core'
p1
(lp2
I26
aI38
aI42
aI45
aI59
aI61
aI71
aI75
aI86
aI87
aI91
aI92
aI94
aI104
aI125
aI128
aI131
aI132
aI134
aI144
aI148
aI151
aI152
aI155
aI156
aI161
aI162
aI165
aI201
aI216
aI220
aI237
aI249
aI253
aI256
aI266
aI271
aI273
aI283
aI300
aI302
aI303
aI305
aI317
aI321
aI324
aI332
aI334
aI339
aI341
aI351
aI354
aI358
aI368
aI370
aI373
aI385
aI402
aI407
aI419
aI423
aI426
aI448
aI450
aI460
aI463
aI464
aI467
aI481
aI482
aI484
aI494
aI498
aI501
aI511
aI518
asS'msa-surface'
p3
(lp4
I1
aI2
aI3
aI4
aI6
aI7
aI8
aI9
aI10
aI11
aI12
aI13
aI14
aI15
aI16
aI18
aI19
aI20
aI22
aI23
aI25
aI26
aI27
aI28
aI29
aI30
aI31
aI32
aI33
aI34
aI35
aI36
aI37
aI39
aI41
aI42
aI43
aI44
aI45
aI46
aI47
aI48
aI49
aI51
aI52
aI53
aI55
aI56
aI57
aI58
aI59
aI60
aI61
aI62
aI63
aI64
aI67
aI68
aI69
aI72
aI74
aI75
aI76
aI77
aI78
aI79
aI80
aI81
aI82
aI84
aI85
aI86
aI87
aI88
aI89
aI90
aI91
aI92
aI93
aI94
aI95
aI96
aI97
aI98
aI99
aI100
aI101
aI102
aI103
aI105
aI106
aI108
aI109
aI112
aI114
aI115
aI116
aI117
aI118
aI119
aI120
aI121
aI122
aI124
aI125
aI126
aI128
aI129
aI132
aI133
aI136
aI137
aI138
aI139
aI142
aI143
aI145
aI146
aI147
aI148
aI149
aI150
aI151
aI152
aI153
aI154
aI155
aI156
aI158
aI159
aI160
aI161
aI162
aI163
aI164
aI165
aI166
aI167
aI168
aI169
aI170
aI171
aI173
aI174
aI175
aI177
aI178
aI179
aI180
aI181
aI182
aI183
aI184
aI185
aI186
aI187
aI188
aI189
aI190
aI191
aI192
aI194
aI195
aI196
aI197
aI198
aI199
aI200
aI201
aI202
aI203
aI204
aI206
aI207
aI208
aI210
aI211
aI213
aI214
aI215
aI216
aI217
aI218
aI219
aI220
aI221
aI223
aI224
aI225
aI226
aI228
aI230
aI231
aI232
aI233
aI234
aI235
aI236
aI237
aI238
aI240
aI241
aI242
aI243
aI244
aI245
aI246
aI247
aI248
aI249
aI250
aI251
aI252
aI253
aI254
aI255
aI257
aI260
aI262
aI263
aI264
aI265
aI266
aI267
aI268
aI269
aI270
aI271
aI272
aI274
aI275
aI276
aI278
aI279
aI281
aI282
aI283
aI284
aI285
aI286
aI287
aI289
aI291
aI292
aI293
aI294
aI296
aI298
aI299
aI300
aI301
aI302
aI303
aI304
aI305
aI306
aI308
aI309
aI311
aI312
aI313
aI315
aI316
aI317
aI318
aI319
aI320
aI321
aI322
aI323
aI325
aI327
aI328
aI330
aI331
aI332
aI333
aI334
aI335
aI336
aI337
aI338
aI339
aI340
aI342
aI344
aI345
aI346
aI347
aI349
aI350
aI351
aI352
aI353
aI354
aI355
aI356
aI357
aI358
aI359
aI361
aI362
aI363
aI365
aI366
aI368
aI369
aI370
aI371
aI372
aI373
aI374
aI375
aI376
aI377
aI378
aI379
aI380
aI381
aI382
aI383
aI384
aI385
aI386
aI387
aI388
aI390
aI392
aI393
aI394
aI395
aI396
aI397
aI398
aI399
aI400
aI402
aI403
aI406
aI407
aI409
aI410
aI411
aI412
aI413
aI414
aI415
aI416
aI417
aI418
aI419
aI420
aI421
aI424
aI426
aI427
aI428
aI429
aI430
aI431
aI432
aI433
aI434
aI436
aI437
aI438
aI440
aI441
aI443
aI444
aI445
aI446
aI447
aI448
aI449
aI450
aI451
aI453
aI454
aI455
aI456
aI457
aI458
aI460
aI461
asS'msa-interface'
p5
(lp6
sS'surface'
p7
(lp8
I22
aI23
aI24
aI25
aI27
aI28
aI29
aI30
aI31
aI32
aI33
aI34
aI35
aI36
aI37
aI39
aI40
aI41
aI43
aI44
aI46
aI47
aI48
aI49
aI50
aI51
aI52
aI53
aI54
aI55
aI56
aI57
aI58
aI60
aI62
aI63
aI64
aI65
aI66
aI67
aI68
aI69
aI70
aI72
aI73
aI74
aI76
aI77
aI78
aI79
aI80
aI81
aI82
aI83
aI84
aI85
aI88
aI89
aI90
aI93
aI95
aI96
aI97
aI98
aI99
aI100
aI101
aI102
aI103
aI105
aI106
aI107
aI108
aI109
aI110
aI111
aI112
aI113
aI114
aI115
aI116
aI117
aI118
aI119
aI120
aI121
aI122
aI123
aI124
aI126
aI127
aI129
aI130
aI133
aI135
aI136
aI137
aI138
aI139
aI140
aI141
aI142
aI143
aI145
aI146
aI147
aI149
aI150
aI153
aI154
aI157
aI158
aI159
aI160
aI163
aI164
aI166
aI167
aI168
aI169
aI170
aI171
aI172
aI173
aI174
aI175
aI176
aI200
aI202
aI203
aI204
aI205
aI206
aI207
aI208
aI209
aI210
aI211
aI212
aI213
aI214
aI215
aI217
aI218
aI219
aI221
aI222
aI223
aI224
aI225
aI226
aI227
aI228
aI229
aI230
aI231
aI232
aI233
aI234
aI235
aI236
aI238
aI239
aI240
aI241
aI242
aI243
aI244
aI245
aI246
aI247
aI248
aI250
aI251
aI252
aI254
aI255
aI257
aI258
aI259
aI260
aI261
aI262
aI263
aI264
aI265
aI267
aI268
aI269
aI270
aI272
aI274
aI275
aI276
aI277
aI278
aI279
aI280
aI281
aI282
aI284
aI285
aI286
aI287
aI288
aI289
aI290
aI291
aI292
aI293
aI294
aI295
aI296
aI297
aI298
aI299
aI301
aI304
aI306
aI307
aI308
aI309
aI310
aI311
aI312
aI313
aI314
aI315
aI316
aI318
aI319
aI320
aI322
aI323
aI325
aI326
aI327
aI328
aI329
aI330
aI331
aI333
aI335
aI336
aI337
aI338
aI340
aI342
aI343
aI344
aI345
aI346
aI347
aI348
aI349
aI350
aI352
aI353
aI355
aI356
aI357
aI359
aI360
aI361
aI362
aI363
aI364
aI365
aI366
aI367
aI369
aI371
aI372
aI374
aI375
aI376
aI377
aI378
aI379
aI380
aI381
aI382
aI383
aI384
aI386
aI403
aI404
aI405
aI406
aI408
aI409
aI410
aI411
aI412
aI413
aI414
aI415
aI416
aI417
aI418
aI420
aI421
aI422
aI424
aI425
aI427
aI428
aI429
aI430
aI431
aI432
aI433
aI434
aI435
aI436
aI437
aI438
aI439
aI440
aI441
aI442
aI443
aI444
aI445
aI446
aI447
aI449
aI451
aI452
aI453
aI454
aI455
aI456
aI457
aI458
aI459
aI461
aI462
aI465
aI466
aI468
aI469
aI470
aI471
aI472
aI473
aI474
aI475
aI476
aI477
aI478
aI479
aI480
aI483
aI485
aI486
aI487
aI488
aI489
aI490
aI491
aI492
aI493
aI495
aI496
aI497
aI499
aI500
aI502
aI503
aI504
aI505
aI506
aI507
aI508
aI509
aI510
aI512
aI513
aI514
aI515
aI516
aI517
aI519
aI520
asS'msa-ligands'
p9
(lp10
I22
aI25
aI37
aI38
aI41
aI46
aI47
aI48
aI49
aI50
aI51
aI52
aI53
aI54
aI55
aI56
aI57
aI59
aI64
aI67
aI68
aI71
aI86
aI87
aI88
aI89
aI90
aI91
aI92
aI93
aI94
aI101
aI102
aI103
aI104
aI105
aI106
aI107
aI108
aI109
aI110
aI111
aI125
aI126
aI127
aI128
aI129
aI130
aI131
aI133
aI134
aI212
aI213
aI214
aI215
aI216
aI217
aI218
aI219
aI249
aI475
asS'msa-core'
p11
(lp12
I5
aI17
aI21
aI24
aI38
aI40
aI50
aI54
aI65
aI66
aI70
aI71
aI73
aI83
aI104
aI107
aI110
aI111
aI113
aI123
aI127
aI130
aI131
aI134
aI135
aI140
aI141
aI144
aI157
aI172
aI176
aI193
aI205
aI209
aI212
aI222
aI227
aI229
aI239
aI256
aI258
aI259
aI261
aI273
aI277
aI280
aI288
aI290
aI295
aI297
aI307
aI310
aI314
aI324
aI326
aI329
aI341
aI343
aI348
aI360
aI364
aI367
aI389
aI391
aI401
aI404
aI405
aI408
aI422
aI423
aI425
aI435
aI439
aI442
aI452
aI459
asS'interface'
p13
(lp14
sS'ligands'
p15
(lp16
I43
aI46
aI58
aI59
aI62
aI67
aI68
aI69
aI70
aI71
aI72
aI73
aI74
aI75
aI76
aI77
aI78
aI80
aI85
aI88
aI89
aI92
aI107
aI108
aI109
aI110
aI111
aI112
aI113
aI114
aI115
aI122
aI123
aI124
aI125
aI126
aI127
aI128
aI129
aI130
aI131
aI132
aI146
aI147
aI148
aI149
aI150
aI151
aI152
aI154
aI155
aI256
aI257
aI258
aI259
aI260
aI261
aI262
aI263
aI293
aI534
as.