(dp0
S'core'
p1
(lp2
I35
aI48
aI57
aI59
aI61
aI88
aI137
asS'msa-surface'
p3
(lp4
I1
aI2
aI3
aI4
aI6
aI7
aI8
aI9
aI10
aI11
aI12
aI13
aI14
aI15
aI16
aI17
aI19
aI20
aI21
aI22
aI23
aI24
aI25
aI26
aI28
aI30
aI32
aI33
aI34
aI35
aI36
aI37
aI38
aI39
aI40
aI41
aI42
aI43
aI44
aI45
aI46
aI47
aI48
aI49
aI50
aI51
aI52
aI53
aI54
aI55
aI56
aI57
aI59
aI60
aI61
aI62
aI63
aI64
aI65
aI66
aI67
aI68
aI69
aI70
aI71
aI72
aI73
aI74
aI75
aI76
aI77
aI78
aI79
aI81
aI82
asS'msa-interface'
p5
(lp6
I35
aI37
aI38
aI39
aI40
aI41
aI43
aI44
aI45
aI46
aI54
aI57
aI60
aI61
aI63
aI64
asS'surface'
p7
(lp8
I31
aI32
aI33
aI34
aI36
aI37
aI38
aI39
aI40
aI41
aI42
aI43
aI44
aI45
aI46
aI47
aI49
aI50
aI51
aI52
aI53
aI54
aI55
aI56
aI58
aI60
aI62
aI63
aI64
aI65
aI66
aI67
aI68
aI69
aI70
aI71
aI72
aI73
aI74
aI75
aI76
aI77
aI78
aI79
aI80
aI81
aI82
aI83
aI84
aI85
aI86
aI87
aI89
aI90
aI91
aI92
aI93
aI94
aI122
aI123
aI124
aI125
aI126
aI127
aI128
aI129
aI130
aI131
aI132
aI133
aI134
aI135
aI136
aI138
aI139
asS'msa-ligands'
p9
(lp10
I8
aI12
aI16
aI17
aI18
aI19
aI20
aI21
aI22
aI23
aI24
aI25
aI26
aI29
aI30
aI31
aI32
aI35
aI36
aI37
aI38
aI39
aI40
aI41
aI42
aI43
aI44
aI45
aI46
aI47
aI48
aI50
aI51
aI52
aI53
aI54
aI55
aI56
aI57
aI58
aI59
aI60
aI61
aI63
aI64
aI65
aI66
aI67
aI68
aI69
aI71
aI72
aI73
aI74
aI75
aI76
asS'msa-core'
p11
(lp12
I5
aI18
aI27
aI29
aI31
aI58
aI80
asS'interface'
p13
(lp14
I65
aI67
aI68
aI69
aI70
aI71
aI73
aI74
aI75
aI76
aI84
aI87
aI90
aI91
aI93
aI94
asS'ligands'
p15
(lp16
I38
aI42
aI46
aI47
aI48
aI49
aI50
aI51
aI52
aI53
aI54
aI55
aI56
aI59
aI60
aI61
aI62
aI65
aI66
aI67
aI68
aI69
aI70
aI71
aI72
aI73
aI74
aI75
aI76
aI77
aI78
aI80
aI81
aI82
aI83
aI84
aI85
aI86
aI87
aI88
aI89
aI90
aI91
aI93
aI94
aI122
aI123
aI124
aI125
aI126
aI128
aI129
aI130
aI131
aI132
aI133
as.