(dp0
S'core'
p1
(lp2
I4
aI5
aI6
aI21
aI24
aI25
aI35
aI42
aI46
aI54
asS'msa-surface'
p3
(lp4
I4
aI5
aI6
aI7
aI8
aI9
aI10
aI11
aI12
aI13
aI14
aI15
aI16
aI17
aI19
aI20
aI23
aI24
aI25
aI26
aI27
aI28
aI29
aI30
aI31
aI33
aI34
aI35
aI36
aI37
aI38
aI40
aI41
aI42
aI44
aI45
aI46
aI47
aI48
aI49
aI50
aI52
aI53
aI54
aI55
aI56
aI57
aI58
aI59
aI60
aI61
aI62
aI63
aI64
aI65
asS'msa-interface'
p5
(lp6
sS'surface'
p7
(lp8
I7
aI8
aI9
aI10
aI11
aI12
aI13
aI14
aI15
aI16
aI17
aI18
aI19
aI20
aI22
aI23
aI26
aI27
aI28
aI29
aI30
aI31
aI32
aI33
aI34
aI36
aI37
aI38
aI39
aI40
aI41
aI43
aI44
aI45
aI47
aI48
aI49
aI50
aI51
aI52
aI53
aI55
aI56
aI57
aI58
aI59
aI60
aI61
aI62
aI63
aI64
aI65
aI66
aI67
aI68
asS'msa-ligands'
p9
(lp10
I1
aI2
aI3
aI4
aI5
aI6
aI7
aI8
aI9
aI10
aI11
aI12
aI13
aI14
aI15
aI16
aI17
aI18
aI19
aI20
aI21
aI22
aI23
aI24
aI25
aI27
aI28
aI29
aI30
aI31
aI32
aI37
aI46
aI47
aI48
aI49
aI50
aI51
aI52
aI53
aI54
aI55
aI56
aI57
aI58
aI59
aI60
aI61
aI62
aI63
aI64
asS'msa-core'
p11
(lp12
I1
aI2
aI3
aI18
aI21
aI22
aI32
aI39
aI43
aI51
asS'interface'
p13
(lp14
sS'ligands'
p15
(lp16
I4
aI5
aI6
aI7
aI8
aI9
aI10
aI11
aI12
aI13
aI14
aI15
aI16
aI17
aI18
aI19
aI20
aI21
aI22
aI23
aI24
aI25
aI26
aI27
aI28
aI30
aI31
aI32
aI33
aI34
aI35
aI40
aI49
aI50
aI51
aI52
aI53
aI54
aI55
aI56
aI57
aI58
aI59
aI60
aI61
aI62
aI63
aI64
aI65
aI66
aI67
as.