(dp0
S'core'
p1
(lp2
I14
aI38
asS'msa-surface'
p3
(lp4
I1
aI2
aI3
aI4
aI5
aI6
aI7
aI8
aI9
aI10
aI11
aI12
aI14
aI15
aI16
aI17
aI18
aI19
aI20
aI21
aI22
aI23
aI24
aI25
aI26
aI27
aI28
aI29
aI30
aI31
aI32
aI33
aI34
aI35
aI36
aI38
aI39
aI40
aI41
aI42
aI43
aI44
aI45
aI46
aI47
aI48
aI49
aI50
asS'msa-interface'
p5
(lp6
I1
aI2
aI3
aI4
aI22
aI23
aI24
aI25
aI28
aI31
aI32
aI33
aI34
aI35
aI36
aI38
aI39
aI47
aI48
aI50
asS'surface'
p7
(lp8
I2
aI3
aI4
aI5
aI6
aI7
aI8
aI9
aI10
aI11
aI12
aI13
aI15
aI16
aI17
aI18
aI19
aI20
aI21
aI22
aI23
aI24
aI25
aI26
aI27
aI28
aI29
aI30
aI31
aI32
aI33
aI34
aI35
aI36
aI37
aI39
aI40
aI41
aI42
aI43
aI44
aI45
aI46
aI47
aI48
aI49
aI50
aI51
asS'msa-ligands'
p9
(lp10
sS'msa-core'
p11
(lp12
I13
aI37
asS'interface'
p13
(lp14
I2
aI3
aI4
aI5
aI23
aI24
aI25
aI26
aI29
aI32
aI33
aI34
aI35
aI36
aI37
aI39
aI40
aI48
aI49
aI51
asS'ligands'
p15
(lp16
s.