(dp0
S'core'
p1
(lp2
I19
aI23
aI46
aI48
aI50
aI60
aI64
asS'msa-surface'
p3
(lp4
I1
aI2
aI3
aI4
aI5
aI6
aI7
aI9
aI10
aI11
aI13
aI14
aI15
aI16
aI17
aI18
aI19
aI20
aI21
aI22
aI23
aI24
aI25
aI26
aI27
aI28
aI29
aI30
aI31
aI32
aI33
aI34
aI36
aI38
aI40
aI41
aI42
aI43
aI44
aI45
aI46
aI47
aI48
aI50
aI51
aI52
aI54
aI55
aI56
aI57
aI58
aI59
aI60
aI61
aI62
aI63
asS'msa-interface'
p5
(lp6
I2
aI3
aI5
aI6
aI9
aI10
aI12
aI13
aI17
aI19
aI20
aI21
aI22
aI23
aI24
aI25
aI26
aI27
aI28
aI33
aI34
aI36
asS'surface'
p7
(lp8
I12
aI13
aI14
aI15
aI16
aI17
aI18
aI20
aI21
aI22
aI24
aI25
aI26
aI27
aI28
aI29
aI30
aI31
aI32
aI33
aI34
aI35
aI36
aI37
aI38
aI39
aI40
aI41
aI42
aI43
aI44
aI45
aI47
aI49
aI51
aI52
aI53
aI54
aI55
aI56
aI57
aI58
aI59
aI61
aI62
aI63
aI65
aI66
aI67
aI68
aI69
aI70
aI71
aI72
aI73
aI74
asS'msa-ligands'
p9
(lp10
I1
aI2
aI4
aI7
aI28
aI29
aI30
aI31
aI32
aI56
aI57
aI58
aI59
aI60
asS'msa-core'
p11
(lp12
I8
aI12
aI35
aI37
aI39
aI49
aI53
asS'interface'
p13
(lp14
I13
aI14
aI16
aI17
aI20
aI21
aI23
aI24
aI28
aI30
aI31
aI32
aI33
aI34
aI35
aI36
aI37
aI38
aI39
aI44
aI45
aI47
asS'ligands'
p15
(lp16
I12
aI13
aI15
aI18
aI39
aI40
aI41
aI42
aI43
aI67
aI68
aI69
aI70
aI71
as.