(dp0
S'core'
p1
(lp2
I79
aI81
aI95
aI97
aI99
aI107
aI109
aI127
aI129
aI131
asS'msa-surface'
p3
(lp4
I1
aI3
aI5
aI6
aI7
aI8
aI9
aI10
aI11
aI12
aI13
aI14
aI15
aI16
aI17
aI19
aI21
aI23
aI24
aI25
aI26
aI27
aI28
aI29
aI31
aI33
aI34
aI35
aI36
aI37
aI38
aI39
aI40
aI41
aI42
aI43
aI44
aI45
aI46
aI47
aI48
aI49
aI51
aI53
aI55
aI56
aI57
aI58
aI59
aI60
aI61
aI62
aI63
aI64
asS'msa-interface'
p5
(lp6
sS'surface'
p7
(lp8
I78
aI80
aI82
aI83
aI84
aI85
aI86
aI87
aI88
aI89
aI90
aI91
aI92
aI93
aI94
aI96
aI98
aI100
aI101
aI102
aI103
aI104
aI105
aI106
aI108
aI110
aI111
aI112
aI113
aI114
aI115
aI116
aI117
aI118
aI119
aI120
aI121
aI122
aI123
aI124
aI125
aI126
aI128
aI130
aI132
aI133
aI134
aI135
aI136
aI137
aI138
aI139
aI140
aI141
asS'msa-ligands'
p9
(lp10
I12
aI13
aI14
aI15
aI16
aI17
aI18
aI19
aI20
aI32
aI33
aI34
aI35
aI36
aI37
aI38
aI39
aI40
aI41
aI42
aI44
aI51
aI53
aI56
aI57
aI58
aI59
aI60
aI61
aI62
asS'msa-core'
p11
(lp12
I2
aI4
aI18
aI20
aI22
aI30
aI32
aI50
aI52
aI54
asS'interface'
p13
(lp14
sS'ligands'
p15
(lp16
I89
aI90
aI91
aI92
aI93
aI94
aI95
aI96
aI97
aI109
aI110
aI111
aI112
aI113
aI114
aI115
aI116
aI117
aI118
aI119
aI121
aI128
aI130
aI133
aI134
aI135
aI136
aI137
aI138
aI139
as.